; Function Attrs: mustprogress nofree norecurse nosync nounwind willreturn memory(read, inaccessiblemem: none) uwtable
define noundef float @_ZNK13sentencepiece26ImmutableSentencePieceText5scoreEv(ptr nocapture noundef nonnull readonly align 8 dereferenceable(32) %0) local_unnamed_addr #7 align 2 {
  %2 = getelementptr inbounds i8, ptr %0, i64 8
  %3 = load ptr, ptr %2, align 8
  %.not = icmp eq ptr %3, null
  br i1 %.not, label %7, label %4

4:                                                ; preds = %1
  %5 = getelementptr inbounds i8, ptr %3, i64 80
  %6 = load float, ptr %5, align 8
  br label %7

7:                                                ; preds = %1, %4
  %8 = phi float [ %6, %4 ], [ 0.000000e+00, %1 ]
  ret float %8
}